target datalayout = "e-m:e-p270:32:32-p271:32:32-p272:64:64-i64:64-i128:128-f80:128-n8:16:32:64-S128"
target triple = "x86_64-pc-linux-gnu"

@.str = private unnamed_addr constant [7 x i8] c"ATOM  \00", align 1
@.str.1 = private unnamed_addr constant [7 x i8] c"HETATM\00", align 1
@.str.6 = private unnamed_addr constant [7 x i8] c"ENDMDL\00", align 1

; Function Attrs: mustprogress uwtable
define void @_Z16get_pdb_coordnumP8_IO_FILEPi(ptr noundef %0, ptr noundef %1) #0 {
  %3 = alloca ptr, align 8
  %4 = alloca ptr, align 8
  %5 = alloca [4096 x i8], align 16
  store ptr %0, ptr %3, align 8, !tbaa !13
  store ptr %1, ptr %4, align 8, !tbaa !26
  call void @llvm.lifetime.start.p0(i64 4096, ptr %5) #15
  %6 = load ptr, ptr %4, align 8, !tbaa !26
  store i32 0, ptr %6, align 4, !tbaa !21
  br label %7

7:                                                ; preds = %29, %2
  %8 = getelementptr inbounds [4096 x i8], ptr %5, i64 0, i64 0
  %9 = load ptr, ptr %3, align 8, !tbaa !13
  %10 = call noundef ptr @_Z6fgets2PciP8_IO_FILE(ptr noundef %8, i32 noundef 4096, ptr noundef %9)
  %11 = icmp ne ptr %10, null
  br i1 %11, label %12, label %30

12:                                               ; preds = %7
  %13 = getelementptr inbounds [4096 x i8], ptr %5, i64 0, i64 0
  %14 = call i32 @strncmp(ptr noundef %13, ptr noundef @.str.6, i64 noundef 6) #19
  %15 = icmp eq i32 %14, 0
  br i1 %15, label %16, label %17

16:                                               ; preds = %12
  br label %30

17:                                               ; preds = %12
  %18 = getelementptr inbounds [4096 x i8], ptr %5, i64 0, i64 0
  %19 = call i32 @strncmp(ptr noundef %18, ptr noundef @.str, i64 noundef 6) #19
  %20 = icmp eq i32 %19, 0
  br i1 %20, label %25, label %21

21:                                               ; preds = %17
  %22 = getelementptr inbounds [4096 x i8], ptr %5, i64 0, i64 0
  %23 = call i32 @strncmp(ptr noundef %22, ptr noundef @.str.1, i64 noundef 6) #19
  %24 = icmp eq i32 %23, 0
  br i1 %24, label %25, label %29

25:                                               ; preds = %21, %17
  %26 = load ptr, ptr %4, align 8, !tbaa !26
  %27 = load i32, ptr %26, align 4, !tbaa !21
  %28 = add nsw i32 %27, 1
  store i32 %28, ptr %26, align 4, !tbaa !21
  br label %29

29:                                               ; preds = %25, %21
  br label %7, !llvm.loop !297

30:                                               ; preds = %16, %7
  call void @llvm.lifetime.end.p0(i64 4096, ptr %5) #15
  ret void
}