; Function Attrs: mustprogress uwtable
define void @_Z16get_pdb_coordnumP8_IO_FILEPi(ptr noundef %0, ptr noundef captures(none) initializes((0, 4)) %1) local_unnamed_addr #1 {
  %3 = alloca [4096 x i8], align 16
  call void @llvm.lifetime.start.p0(i64 4096, ptr nonnull %3) #28
  store i32 0, ptr %1, align 4, !tbaa !11
  %4 = call noundef ptr @_Z6fgets2PciP8_IO_FILE(ptr noundef nonnull %3, i32 noundef 4096, ptr noundef %0)
  %.not5 = icmp eq ptr %4, null
  br i1 %.not5, label %._crit_edge, label %.lr.ph

.lr.ph:                                           ; preds = %2, %13
  %bcmp = call i32 @bcmp(ptr noundef nonnull dereferenceable(6) %3, ptr noundef nonnull dereferenceable(6) @.str.6, i64 6)
  %5 = icmp eq i32 %bcmp, 0
  br i1 %5, label %._crit_edge, label %6

6:                                                ; preds = %.lr.ph
  %bcmp3 = call i32 @bcmp(ptr noundef nonnull dereferenceable(6) %3, ptr noundef nonnull dereferenceable(6) @.str, i64 6)
  %7 = icmp eq i32 %bcmp3, 0
  br i1 %7, label %10, label %8

8:                                                ; preds = %6
  %bcmp4 = call i32 @bcmp(ptr noundef nonnull dereferenceable(6) %3, ptr noundef nonnull dereferenceable(6) @.str.1, i64 6)
  %9 = icmp eq i32 %bcmp4, 0
  br i1 %9, label %10, label %13

10:                                               ; preds = %8, %6
  %11 = load i32, ptr %1, align 4, !tbaa !11
  %12 = add nsw i32 %11, 1
  store i32 %12, ptr %1, align 4, !tbaa !11
  br label %13

13:                                               ; preds = %10, %8
  %14 = call noundef ptr @_Z6fgets2PciP8_IO_FILE(ptr noundef nonnull %3, i32 noundef 4096, ptr noundef %0)
  %.not = icmp eq ptr %14, null
  br i1 %.not, label %._crit_edge, label %.lr.ph, !llvm.loop !134

._crit_edge:                                      ; preds = %13, %.lr.ph, %2
  call void @llvm.lifetime.end.p0(i64 4096, ptr nonnull %3) #28
  ret void
}